; Function Attrs: mustprogress nounwind uwtable
define hidden void @_ZN2cv8obsensor19DepthFrameProcessorD0Ev(ptr noundef nonnull align 8 dereferenceable(32) initializes((0, 8)) %0) unnamed_addr #6 align 2 {
  store ptr getelementptr inbounds nuw inrange(-16, 24) (i8, ptr @_ZTVN2cv8obsensor19DepthFrameProcessorE, i64 16), ptr %0, align 8, !tbaa !61
  %2 = getelementptr inbounds nuw i8, ptr %0, i64 24
  %3 = load ptr, ptr %2, align 8, !tbaa !90
  %4 = icmp eq ptr %3, null
  br i1 %4, label %_ZN2cv8obsensor19DepthFrameProcessorD2Ev.exit, label %5

5:                                                ; preds = %1
  tail call void @_ZdaPv(ptr noundef nonnull %3) #30
  br label %_ZN2cv8obsensor19DepthFrameProcessorD2Ev.exit

_ZN2cv8obsensor19DepthFrameProcessorD2Ev.exit:    ; preds = %1, %5
  tail call void @_ZdlPv(ptr noundef nonnull %0) #30
  ret void
}